; Function Attrs: mustprogress uwtable
define hidden void @_ZN4ncnn24Deconvolution_x86_avx512C2Ev(ptr noundef nonnull align 8 dereferenceable(592) %0) unnamed_addr #2 align 2 personality ptr @__gxx_personality_v0 {
  tail call void @_ZN4ncnn13DeconvolutionC2Ev(ptr noundef nonnull align 8 dereferenceable(504) %0)
  store ptr getelementptr inbounds nuw inrange(-16, 80) (i8, ptr @_ZTVN4ncnn24Deconvolution_x86_avx512E, i64 16), ptr %0, align 8, !tbaa !4
  %2 = getelementptr inbounds nuw i8, ptr %0, i64 520
  %3 = getelementptr inbounds nuw i8, ptr %0, i64 552
  %4 = getelementptr inbounds nuw i8, ptr %0, i64 584
  store i64 0, ptr %4, align 8, !tbaa !17
  %5 = getelementptr inbounds nuw i8, ptr %0, i64 11
  tail call void @llvm.memset.p0.i64(ptr noundef nonnull align 8 dereferenceable(28) %2, i8 0, i64 28, i1 false)
  tail call void @llvm.memset.p0.i64(ptr noundef nonnull align 8 dereferenceable(28) %3, i8 0, i64 28, i1 false)
  store i8 1, ptr %5, align 1, !tbaa !100
  %6 = getelementptr inbounds nuw i8, ptr %0, i64 504
  tail call void @llvm.memset.p0.i64(ptr noundef nonnull align 8 dereferenceable(16) %6, i8 0, i64 16, i1 false)
  ret void
}